target datalayout = "e-m:e-p270:32:32-p271:32:32-p272:64:64-i64:64-i128:128-f80:128-n8:16:32:64-S128"
target triple = "x86_64-pc-linux-gnu"

@_ZN8Universe14_collectedHeapE = external global ptr, align 8

; Function Attrs: mustprogress nounwind uwtable
define linkonce_odr hidden noundef ptr @_ZN8Universe4heapEv() #1 comdat align 2 {
  %1 = load ptr, ptr @_ZN8Universe14_collectedHeapE, align 8
  ret ptr %1
}

; Function Attrs: mustprogress nounwind uwtable
define linkonce_odr hidden noundef ptr @_ZN13CollectedHeap10named_heapI14ShenandoahHeapEEPT_NS_4NameE(i32 noundef %0) #1 comdat align 2 {
  %2 = alloca i32, align 4
  %3 = alloca ptr, align 8
  store i32 %0, ptr %2, align 4
  %4 = call noundef ptr @_ZN8Universe4heapEv()
  store ptr %4, ptr %3, align 8
  %5 = load ptr, ptr %3, align 8
  ret ptr %5
}

; Function Attrs: mustprogress nounwind uwtable
define linkonce_odr hidden noundef ptr @_ZN14ShenandoahHeap4heapEv() #1 comdat align 2 {
  %1 = call noundef ptr @_ZN13CollectedHeap10named_heapI14ShenandoahHeapEEPT_NS_4NameE(i32 noundef 6)
  ret ptr %1
}

; Function Attrs: mustprogress nounwind uwtable
define hidden noundef zeroext i1 @_ZN19ShenandoahCodeRoots29use_nmethod_barriers_for_markEv() #1 align 2 {
  %1 = alloca i1, align 1
  %2 = call noundef zeroext i1 @_ZN13Continuations7enabledEv()
  br i1 %2, label %3, label %4

3:                                                ; preds = %0
  store i1 true, ptr %1, align 1
  br label %9

4:                                                ; preds = %0
  %5 = call noundef ptr @_ZN14ShenandoahHeap4heapEv()
  %6 = call noundef zeroext i1 @_ZNK14ShenandoahHeap14unload_classesEv(ptr noundef nonnull align 8 dereferenceable(2657) %5)
  br i1 %6, label %7, label %8

7:                                                ; preds = %4
  store i1 true, ptr %1, align 1
  br label %9

8:                                                ; preds = %4
  store i1 false, ptr %1, align 1
  br label %9

9:                                                ; preds = %8, %7, %3
  %10 = load i1, ptr %1, align 1
  ret i1 %10
}