; Function Attrs: mustprogress nounwind uwtable
define hidden noundef zeroext i1 @_ZN19ShenandoahCodeRoots29use_nmethod_barriers_for_markEv() local_unnamed_addr #0 align 2 {
  %1 = tail call noundef zeroext i1 @_ZN13Continuations7enabledEv() #7
  br i1 %1, label %5, label %2

2:                                                ; preds = %0
  %3 = load ptr, ptr @_ZN8Universe14_collectedHeapE, align 8
  %4 = tail call noundef zeroext i1 @_ZNK14ShenandoahHeap14unload_classesEv(ptr noundef nonnull align 8 dereferenceable(2657) %3) #7
  br label %5

5:                                                ; preds = %2, %0
  %.0 = phi i1 [ true, %0 ], [ %4, %2 ]
  ret i1 %.0
}